; Function Attrs: mustprogress nounwind uwtable
define dso_local void @_ZN4llvm21CheckPredicateMatcherC2ERKNS_15TreePredicateFnENS_8ArrayRefIjEE(ptr noundef nonnull align 8 dereferenceable(72) %0, ptr nocapture noundef nonnull readonly align 8 dereferenceable(8) %1, ptr %2, i64 %3) unnamed_addr #1 align 2 {
  %5 = getelementptr inbounds nuw i8, ptr %0, i64 8
  %6 = getelementptr inbounds nuw i8, ptr %0, i64 24
  tail call void @llvm.memset.p0.i64(ptr noundef nonnull align 8 dereferenceable(16) %5, i8 0, i64 16, i1 false)
  store i32 11, ptr %6, align 8
  store ptr getelementptr inbounds inrange(-16, 48) (i8, ptr @_ZTVN4llvm21CheckPredicateMatcherE, i64 16), ptr %0, align 8
  %7 = getelementptr inbounds nuw i8, ptr %0, i64 32
  %8 = load ptr, ptr %1, align 8
  store ptr %8, ptr %7, align 8
  %9 = getelementptr inbounds nuw i8, ptr %0, i64 40
  %10 = getelementptr inbounds i8, ptr %0, i64 56
  tail call void @_ZN4llvm15SmallVectorBaseIjEC2EPvm(ptr noundef nonnull align 8 dereferenceable(16) %9, ptr noundef nonnull %10, i64 noundef 4) #13
  %11 = getelementptr inbounds i32, ptr %2, i64 %3
  tail call void @_ZN4llvm15SmallVectorImplIjE6appendIPKjvEEvT_S5_(ptr noundef nonnull align 8 dereferenceable(16) %9, ptr noundef %2, ptr noundef %11)
  ret void
}